target datalayout = "e-m:e-p270:32:32-p271:32:32-p272:64:64-i64:64-i128:128-f80:128-n8:16:32:64-S128"
target triple = "x86_64-unknown-linux-gnu"

@.str.380 = private unnamed_addr constant [1 x i8] zeroinitializer, align 1
@.str.381 = private unnamed_addr constant [2 x i8] c"k\00", align 1
@_ZTIN4cvc58internal24IllegalArgumentExceptionE = linkonce_odr constant { ptr, ptr, ptr } { ptr getelementptr inbounds (ptr, ptr @_ZTVN10__cxxabiv120__si_class_type_infoE, i64 2), ptr @_ZTSN4cvc58internal24IllegalArgumentExceptionE, ptr @_ZTIN4cvc58internal9ExceptionE }, comdat, align 8
@__PRETTY_FUNCTION__._ZN4cvc58internal6theory22typeConstantToTheoryIdENS0_12TypeConstantE = private unnamed_addr constant [86 x i8] c"TheoryId cvc5::internal::theory::typeConstantToTheoryId(cvc5::internal::TypeConstant)\00", align 1
@.str.383 = private unnamed_addr constant [18 x i8] c"bad type constant\00", align 1

; Function Attrs: mustprogress uwtable
define hidden noundef i32 @_ZN4cvc58internal6theory22typeConstantToTheoryIdENS0_12TypeConstantE(i32 noundef %typeConstant) #1 personality ptr @__gxx_personality_v0 {
entry:
  %retval = alloca i32, align 4
  %typeConstant.addr = alloca i32, align 4
  %exn.slot = alloca ptr, align 8
  %ehselector.slot = alloca i32, align 4
  store i32 %typeConstant, ptr %typeConstant.addr, align 4
  %0 = load i32, ptr %typeConstant.addr, align 4
  switch i32 %0, label %sw.epilog [
    i32 0, label %sw.bb
    i32 1, label %sw.bb1
    i32 2, label %sw.bb2
    i32 3, label %sw.bb3
    i32 4, label %sw.bb4
    i32 5, label %sw.bb5
    i32 6, label %sw.bb6
    i32 7, label %sw.bb7
    i32 8, label %sw.bb8
    i32 9, label %sw.bb9
    i32 10, label %sw.bb10
    i32 11, label %sw.bb11
  ]

sw.bb:                                            ; preds = %entry
  store i32 0, ptr %retval, align 4
  br label %return

sw.bb1:                                           ; preds = %entry
  store i32 0, ptr %retval, align 4
  br label %return

sw.bb2:                                           ; preds = %entry
  store i32 1, ptr %retval, align 4
  br label %return

sw.bb3:                                           ; preds = %entry
  store i32 3, ptr %retval, align 4
  br label %return

sw.bb4:                                           ; preds = %entry
  store i32 3, ptr %retval, align 4
  br label %return

sw.bb5:                                           ; preds = %entry
  store i32 6, ptr %retval, align 4
  br label %return

sw.bb6:                                           ; preds = %entry
  store i32 12, ptr %retval, align 4
  br label %return

sw.bb7:                                           ; preds = %entry
  store i32 12, ptr %retval, align 4
  br label %return

sw.bb8:                                           ; preds = %entry
  store i32 13, ptr %retval, align 4
  br label %return

sw.bb9:                                           ; preds = %entry
  store i32 13, ptr %retval, align 4
  br label %return

sw.bb10:                                          ; preds = %entry
  store i32 13, ptr %retval, align 4
  br label %return

sw.bb11:                                          ; preds = %entry
  br label %sw.epilog

sw.epilog:                                        ; preds = %sw.bb11, %entry
  %exception = call ptr @__cxa_allocate_exception(i64 40) #7
  invoke void @_ZN4cvc58internal24IllegalArgumentExceptionC2EPKcS3_S3_S3_(ptr noundef nonnull align 8 dereferenceable(40) %exception, ptr noundef @.str.380, ptr noundef @.str.381, ptr noundef @__PRETTY_FUNCTION__._ZN4cvc58internal6theory22typeConstantToTheoryIdENS0_12TypeConstantE, ptr noundef @.str.383)
          to label %invoke.cont unwind label %lpad

invoke.cont:                                      ; preds = %sw.epilog
  call void @__cxa_throw(ptr %exception, ptr @_ZTIN4cvc58internal24IllegalArgumentExceptionE, ptr @_ZN4cvc58internal24IllegalArgumentExceptionD2Ev) #8
  unreachable

lpad:                                             ; preds = %sw.epilog
  %1 = landingpad { ptr, i32 }
          cleanup
  %2 = extractvalue { ptr, i32 } %1, 0
  store ptr %2, ptr %exn.slot, align 8
  %3 = extractvalue { ptr, i32 } %1, 1
  store i32 %3, ptr %ehselector.slot, align 4
  call void @__cxa_free_exception(ptr %exception) #7
  br label %eh.resume

return:                                           ; preds = %sw.bb10, %sw.bb9, %sw.bb8, %sw.bb7, %sw.bb6, %sw.bb5, %sw.bb4, %sw.bb3, %sw.bb2, %sw.bb1, %sw.bb
  %4 = load i32, ptr %retval, align 4
  ret i32 %4

eh.resume:                                        ; preds = %lpad
  %exn = load ptr, ptr %exn.slot, align 8
  %sel = load i32, ptr %ehselector.slot, align 4
  %lpad.val = insertvalue { ptr, i32 } poison, ptr %exn, 0
  %lpad.val12 = insertvalue { ptr, i32 } %lpad.val, i32 %sel, 1
  resume { ptr, i32 } %lpad.val12
}