; Function Attrs: mustprogress uwtable
define hidden noundef i32 @_ZN4cvc58internal6theory22typeConstantToTheoryIdENS0_12TypeConstantE(i32 noundef %typeConstant) local_unnamed_addr #1 personality ptr @__gxx_personality_v0 {
entry:
  %0 = icmp ult i32 %typeConstant, 11
  br i1 %0, label %switch.lookup, label %sw.epilog

sw.epilog:                                        ; preds = %entry
  %exception = tail call ptr @__cxa_allocate_exception(i64 40) #8
  invoke void @_ZN4cvc58internal24IllegalArgumentExceptionC2EPKcS3_S3_S3_(ptr noundef nonnull align 8 dereferenceable(40) %exception, ptr noundef nonnull @.str.380, ptr noundef nonnull @.str.381, ptr noundef nonnull @__PRETTY_FUNCTION__._ZN4cvc58internal6theory22typeConstantToTheoryIdENS0_12TypeConstantE, ptr noundef nonnull @.str.383)
          to label %invoke.cont unwind label %lpad

invoke.cont:                                      ; preds = %sw.epilog
  tail call void @__cxa_throw(ptr nonnull %exception, ptr nonnull @_ZTIN4cvc58internal24IllegalArgumentExceptionE, ptr nonnull @_ZN4cvc58internal24IllegalArgumentExceptionD2Ev) #9
  unreachable

lpad:                                             ; preds = %sw.epilog
  %1 = landingpad { ptr, i32 }
          cleanup
  tail call void @__cxa_free_exception(ptr %exception) #8
  resume { ptr, i32 } %1

switch.lookup:                                    ; preds = %entry
  %2 = zext nneg i32 %typeConstant to i64
  %switch.gep = getelementptr inbounds [11 x i32], ptr @switch.table._ZN4cvc58internal6theory22typeConstantToTheoryIdENS0_12TypeConstantE, i64 0, i64 %2
  %switch.load = load i32, ptr %switch.gep, align 4
  ret i32 %switch.load
}